target datalayout = "e-m:e-p270:32:32-p271:32:32-p272:64:64-i64:64-i128:128-f80:128-n8:16:32:64-S128"
target triple = "x86_64-pc-linux-gnu"

%struct.client_response = type { ptr }

@plugin_type = external constant [0 x i8], align 1
@.str.53 = private unnamed_addr constant [8 x i8] c"kvsname\00", align 1
@.str.54 = private unnamed_addr constant [4 x i8] c"key\00", align 1
@.str.58 = private unnamed_addr constant [33 x i8] c"%s: %s: mpi/pmi2: in _handle_get\00", align 1
@__func__._handle_get = private unnamed_addr constant [12 x i8] c"_handle_get\00", align 1
@.str.59 = private unnamed_addr constant [30 x i8] c"cmd=get_result rc=0 value=%s\0A\00", align 1
@.str.60 = private unnamed_addr constant [21 x i8] c"cmd=get_result rc=1\0A\00", align 1
@.str.61 = private unnamed_addr constant [34 x i8] c"%s: %s: mpi/pmi2: out _handle_get\00", align 1

; Function Attrs: nounwind uwtable
define internal i32 @_handle_get(i32 noundef %0, i32 noundef %1, ptr noundef %2) #0 {
  %4 = alloca i32, align 4
  %5 = alloca i32, align 4
  %6 = alloca ptr, align 8
  %7 = alloca i32, align 4
  %8 = alloca ptr, align 8
  %9 = alloca ptr, align 8
  %10 = alloca ptr, align 8
  %11 = alloca ptr, align 8
  store i32 %0, ptr %4, align 4
  store i32 %1, ptr %5, align 4
  store ptr %2, ptr %6, align 8
  call void @llvm.lifetime.start.p0(i64 4, ptr %7) #6
  call void @llvm.lifetime.start.p0(i64 8, ptr %8) #6
  call void @llvm.lifetime.start.p0(i64 8, ptr %9) #6
  store ptr null, ptr %9, align 8
  call void @llvm.lifetime.start.p0(i64 8, ptr %10) #6
  store ptr null, ptr %10, align 8
  call void @llvm.lifetime.start.p0(i64 8, ptr %11) #6
  store ptr null, ptr %11, align 8
  br label %12

12:                                               ; preds = %3
  br label %13

13:                                               ; preds = %12
  %14 = call i32 @slurm_get_log_level()
  %15 = icmp sge i32 %14, 7
  br i1 %15, label %16, label %17

16:                                               ; preds = %13
  call void (i32, ptr, ...) @slurm_log_var(i32 noundef 7, ptr noundef @.str.58, ptr noundef @plugin_type, ptr noundef @__func__._handle_get)
  br label %17

17:                                               ; preds = %16, %13
  br label %18

18:                                               ; preds = %17
  br label %19

19:                                               ; preds = %18
  br label %20

20:                                               ; preds = %19
  br label %21

21:                                               ; preds = %20
  %22 = load ptr, ptr %6, align 8
  %23 = call i32 @client_req_parse_body(ptr noundef %22)
  %24 = load ptr, ptr %6, align 8
  %25 = call zeroext i1 @client_req_get_str(ptr noundef %24, ptr noundef @.str.53, ptr noundef %9)
  %26 = load ptr, ptr %6, align 8
  %27 = call zeroext i1 @client_req_get_str(ptr noundef %26, ptr noundef @.str.54, ptr noundef %10)
  call void @slurm_xfree(ptr noundef %9)
  %28 = load ptr, ptr %10, align 8
  %29 = call ptr @kvs_get(ptr noundef %28)
  store ptr %29, ptr %11, align 8
  call void @slurm_xfree(ptr noundef %10)
  %30 = call ptr @client_resp_new()
  store ptr %30, ptr %8, align 8
  %31 = load ptr, ptr %11, align 8
  %32 = icmp ne ptr %31, null
  br i1 %32, label %33, label %40

33:                                               ; preds = %21
  br label %34

34:                                               ; preds = %33
  %35 = load ptr, ptr %8, align 8
  %36 = getelementptr inbounds nuw %struct.client_response, ptr %35, i32 0, i32 0
  %37 = load ptr, ptr %11, align 8
  call void (ptr, ptr, ...) @slurm_xstrfmtcat(ptr noundef %36, ptr noundef @.str.59, ptr noundef %37)
  br label %38

38:                                               ; preds = %34
  br label %39

39:                                               ; preds = %38
  br label %46

40:                                               ; preds = %21
  br label %41

41:                                               ; preds = %40
  %42 = load ptr, ptr %8, align 8
  %43 = getelementptr inbounds nuw %struct.client_response, ptr %42, i32 0, i32 0
  call void (ptr, ptr, ...) @slurm_xstrfmtcat(ptr noundef %43, ptr noundef @.str.60)
  br label %44

44:                                               ; preds = %41
  br label %45

45:                                               ; preds = %44
  br label %46

46:                                               ; preds = %45, %39
  %47 = load ptr, ptr %8, align 8
  %48 = load i32, ptr %4, align 4
  %49 = call i32 @client_resp_send(ptr noundef %47, i32 noundef %48)
  store i32 %49, ptr %7, align 4
  %50 = load ptr, ptr %8, align 8
  call void @client_resp_free(ptr noundef %50)
  br label %51

51:                                               ; preds = %46
  br label %52

52:                                               ; preds = %51
  %53 = call i32 @slurm_get_log_level()
  %54 = icmp sge i32 %53, 7
  br i1 %54, label %55, label %56

55:                                               ; preds = %52
  call void (i32, ptr, ...) @slurm_log_var(i32 noundef 7, ptr noundef @.str.61, ptr noundef @plugin_type, ptr noundef @__func__._handle_get)
  br label %56

56:                                               ; preds = %55, %52
  br label %57

57:                                               ; preds = %56
  br label %58

58:                                               ; preds = %57
  br label %59

59:                                               ; preds = %58
  br label %60

60:                                               ; preds = %59
  %61 = load i32, ptr %7, align 4
  call void @llvm.lifetime.end.p0(i64 8, ptr %11) #6
  call void @llvm.lifetime.end.p0(i64 8, ptr %10) #6
  call void @llvm.lifetime.end.p0(i64 8, ptr %9) #6
  call void @llvm.lifetime.end.p0(i64 8, ptr %8) #6
  call void @llvm.lifetime.end.p0(i64 4, ptr %7) #6
  ret i32 %61
}