; Function Attrs: nounwind uwtable
define internal i32 @_handle_get(i32 noundef %0, i32 %1, ptr noundef %2) #0 {
  %4 = alloca ptr, align 8
  %5 = alloca ptr, align 8
  call void @llvm.lifetime.start.p0(i64 8, ptr nonnull %4) #8
  store ptr null, ptr %4, align 8
  call void @llvm.lifetime.start.p0(i64 8, ptr nonnull %5) #8
  store ptr null, ptr %5, align 8
  %6 = tail call i32 @slurm_get_log_level() #8
  %7 = icmp sgt i32 %6, 6
  br i1 %7, label %8, label %9

8:                                                ; preds = %3
  tail call void (i32, ptr, ...) @slurm_log_var(i32 noundef 7, ptr noundef nonnull @.str.58, ptr noundef nonnull @plugin_type, ptr noundef nonnull @__func__._handle_get) #8
  br label %9

9:                                                ; preds = %8, %3
  %10 = tail call i32 @client_req_parse_body(ptr noundef %2) #8
  %11 = call zeroext i1 @client_req_get_str(ptr noundef %2, ptr noundef nonnull @.str.53, ptr noundef nonnull %4) #8
  %12 = call zeroext i1 @client_req_get_str(ptr noundef %2, ptr noundef nonnull @.str.54, ptr noundef nonnull %5) #8
  call void @slurm_xfree(ptr noundef nonnull %4) #8
  %13 = load ptr, ptr %5, align 8
  %14 = call ptr @kvs_get(ptr noundef %13) #8
  call void @slurm_xfree(ptr noundef nonnull %5) #8
  %15 = call ptr @client_resp_new() #8
  %.not = icmp eq ptr %14, null
  br i1 %.not, label %17, label %16

16:                                               ; preds = %9
  call void (ptr, ptr, ...) @slurm_xstrfmtcat(ptr noundef %15, ptr noundef nonnull @.str.59, ptr noundef nonnull %14) #8
  br label %18

17:                                               ; preds = %9
  call void (ptr, ptr, ...) @slurm_xstrfmtcat(ptr noundef %15, ptr noundef nonnull @.str.60) #8
  br label %18

18:                                               ; preds = %17, %16
  %19 = call i32 @client_resp_send(ptr noundef %15, i32 noundef %0) #8
  call void @client_resp_free(ptr noundef %15) #8
  %20 = call i32 @slurm_get_log_level() #8
  %21 = icmp sgt i32 %20, 6
  br i1 %21, label %22, label %23

22:                                               ; preds = %18
  call void (i32, ptr, ...) @slurm_log_var(i32 noundef 7, ptr noundef nonnull @.str.61, ptr noundef nonnull @plugin_type, ptr noundef nonnull @__func__._handle_get) #8
  br label %23

23:                                               ; preds = %22, %18
  call void @llvm.lifetime.end.p0(i64 8, ptr nonnull %5) #8
  call void @llvm.lifetime.end.p0(i64 8, ptr nonnull %4) #8
  ret i32 %19
}